; Function Attrs: mustprogress uwtable
define void @_ZN7rocksdb13DBWithTTLImpl7StripTSEPNS_13PinnableSliceE(ptr noalias sret(%"class.rocksdb::Status") align 8 %agg.result, ptr nocapture noundef %pinnable_val) local_unnamed_addr #2 align 2 personality ptr @__gxx_personality_v0 {
entry:
  %ref.tmp = alloca %"class.rocksdb::Slice", align 8
  %ref.tmp1 = alloca %"class.rocksdb::Slice", align 8
  %size_.i = getelementptr inbounds i8, ptr %pinnable_val, i64 8
  %0 = load i64, ptr %size_.i, align 8
  %cmp = icmp ult i64 %0, 4
  br i1 %cmp, label %if.then, label %if.end

if.then:                                          ; preds = %entry
  store ptr @.str.25, ptr %ref.tmp, align 8
  %size_.i2 = getelementptr inbounds i8, ptr %ref.tmp, i64 8
  store i64 26, ptr %size_.i2, align 8
  store ptr @.str.27, ptr %ref.tmp1, align 8
  %size_.i3 = getelementptr inbounds i8, ptr %ref.tmp1, i64 8
  store i64 0, ptr %size_.i3, align 8
  call void @_ZN7rocksdb6StatusC2ENS0_4CodeENS0_7SubCodeERKNS_5SliceES5_NS0_8SeverityE(ptr noundef nonnull align 8 dereferenceable(16) %agg.result, i8 noundef zeroext 2, i8 noundef zeroext 0, ptr noundef nonnull align 8 dereferenceable(16) %ref.tmp, ptr noundef nonnull align 8 dereferenceable(16) %ref.tmp1, i8 noundef zeroext 0)
  br label %return

if.end:                                           ; preds = %entry
  %pinned_.i = getelementptr inbounds i8, ptr %pinnable_val, i64 88
  %1 = load i8, ptr %pinned_.i, align 8
  %2 = and i8 %1, 1
  %tobool.not.i = icmp eq i8 %2, 0
  br i1 %tobool.not.i, label %if.else.i, label %if.then.i

if.then.i:                                        ; preds = %if.end
  %sub.i = add i64 %0, -4
  br label %_ZN7rocksdb13PinnableSlice13remove_suffixEm.exit

if.else.i:                                        ; preds = %if.end
  %buf_.i = getelementptr inbounds i8, ptr %pinnable_val, i64 80
  %3 = load ptr, ptr %buf_.i, align 8
  %sub2.i = add i64 %0, -4
  %call3.i = tail call noundef nonnull align 8 dereferenceable(32) ptr @_ZNSt7__cxx1112basic_stringIcSt11char_traitsIcESaIcEE5eraseEmm(ptr noundef nonnull align 8 dereferenceable(32) %3, i64 noundef %sub2.i, i64 noundef 4)
  %4 = load ptr, ptr %buf_.i, align 8
  %call.i.i = tail call noundef ptr @_ZNSt7__cxx1112basic_stringIcSt11char_traitsIcESaIcEE4dataEv(ptr noundef nonnull align 8 dereferenceable(32) %4) #21
  store ptr %call.i.i, ptr %pinnable_val, align 8
  %5 = load ptr, ptr %buf_.i, align 8
  %call3.i.i = tail call noundef i64 @_ZNKSt7__cxx1112basic_stringIcSt11char_traitsIcESaIcEE4sizeEv(ptr noundef nonnull align 8 dereferenceable(32) %5) #21
  br label %_ZN7rocksdb13PinnableSlice13remove_suffixEm.exit

_ZN7rocksdb13PinnableSlice13remove_suffixEm.exit: ; preds = %if.then.i, %if.else.i
  %storemerge = phi i64 [ %sub.i, %if.then.i ], [ %call3.i.i, %if.else.i ]
  store i64 %storemerge, ptr %size_.i, align 8
  %state_.i.i = getelementptr inbounds i8, ptr %agg.result, i64 8
  store ptr null, ptr %state_.i.i, align 8, !alias.scope !32
  tail call void @llvm.memset.p0.i64(ptr noundef nonnull align 8 dereferenceable(6) %agg.result, i8 0, i64 6, i1 false), !alias.scope !32
  br label %return

return:                                           ; preds = %_ZN7rocksdb13PinnableSlice13remove_suffixEm.exit, %if.then
  ret void
}